; ModuleID = '15/2116.c'
source_filename = "15/2116.c"
target datalayout = "e-m:e-p270:32:32-p271:32:32-p272:64:64-i64:64-f80:128-n8:16:32:64-S128"
target triple = "x86_64-pc-linux-gnu"

@.str = private unnamed_addr constant [3 x i8] c"%d\00", align 1
@.str.1 = private unnamed_addr constant [4 x i8] c"%d\0A\00", align 1

; Function Attrs: noinline nounwind uwtable
define dso_local i32 @main() #0 {
  %1 = alloca i32, align 4
  %2 = alloca i32, align 4
  %3 = alloca i32, align 4
  %4 = alloca i32, align 4
  %5 = alloca i32, align 4
  %6 = alloca i32, align 4
  %7 = alloca i32, align 4
  %8 = alloca i32, align 4
  %9 = alloca i32, align 4
  %10 = alloca i32, align 4
  %11 = alloca i32, align 4
  store i32 0, i32* %1, align 4
  store i32 0, i32* %7, align 4
  %12 = call i32 (i8*, ...) @__isoc99_scanf(i8* getelementptr inbounds ([3 x i8], [3 x i8]* @.str, i64 0, i64 0), i32* %2)
  store i32 1, i32* %4, align 4
  br label %13

13:                                               ; preds = %31, %0
  %14 = load i32, i32* %4, align 4
  %15 = load i32, i32* %2, align 4
  %16 = load i32, i32* %2, align 4
  %17 = mul nsw i32 %15, %16
  %18 = icmp sle i32 %14, %17
  br i1 %18, label %19, label %34

19:                                               ; preds = %13
  %20 = call i32 (i8*, ...) @__isoc99_scanf(i8* getelementptr inbounds ([3 x i8], [3 x i8]* @.str, i64 0, i64 0), i32* %3)
  %21 = load i32, i32* %3, align 4
  %22 = icmp eq i32 %21, 0
  br i1 %22, label %23, label %30

23:                                               ; preds = %19
  %24 = load i32, i32* %7, align 4
  %25 = icmp eq i32 %24, 0
  br i1 %25, label %26, label %28

26:                                               ; preds = %23
  %27 = load i32, i32* %4, align 4
  store i32 %27, i32* %5, align 4
  br label %28

28:                                               ; preds = %26, %23
  store i32 1, i32* %7, align 4
  %29 = load i32, i32* %4, align 4
  store i32 %29, i32* %6, align 4
  br label %30

30:                                               ; preds = %28, %19
  br label %31

31:                                               ; preds = %30
  %32 = load i32, i32* %4, align 4
  %33 = add nsw i32 %32, 1
  store i32 %33, i32* %4, align 4
  br label %13

34:                                               ; preds = %13
  %35 = load i32, i32* %5, align 4
  %36 = load i32, i32* %2, align 4
  %37 = add nsw i32 %35, %36
  %38 = sub nsw i32 %37, 1
  %39 = load i32, i32* %2, align 4
  %40 = sdiv i32 %38, %39
  store i32 %40, i32* %8, align 4
  %41 = load i32, i32* %5, align 4
  %42 = load i32, i32* %2, align 4
  %43 = srem i32 %41, %42
  store i32 %43, i32* %10, align 4
  %44 = load i32, i32* %6, align 4
  %45 = load i32, i32* %2, align 4
  %46 = add nsw i32 %44, %45
  %47 = sub nsw i32 %46, 1
  %48 = load i32, i32* %2, align 4
  %49 = sdiv i32 %47, %48
  store i32 %49, i32* %9, align 4
  %50 = load i32, i32* %6, align 4
  %51 = load i32, i32* %2, align 4
  %52 = load i32, i32* %9, align 4
  %53 = sub nsw i32 %52, 1
  %54 = mul nsw i32 %51, %53
  %55 = sub nsw i32 %50, %54
  store i32 %55, i32* %11, align 4
  %56 = load i32, i32* %9, align 4
  %57 = load i32, i32* %8, align 4
  %58 = sub nsw i32 %56, %57
  %59 = sub nsw i32 %58, 1
  %60 = load i32, i32* %11, align 4
  %61 = load i32, i32* %10, align 4
  %62 = sub nsw i32 %60, %61
  %63 = sub nsw i32 %62, 1
  %64 = mul nsw i32 %59, %63
  %65 = call i32 (i8*, ...) @printf(i8* getelementptr inbounds ([4 x i8], [4 x i8]* @.str.1, i64 0, i64 0), i32 %64)
  ret i32 0
}

declare dso_local i32 @__isoc99_scanf(i8*, ...) #1

declare dso_local i32 @printf(i8*, ...) #1


!llvm.module.flags = !{!0}
!llvm.ident = !{!1}

!0 = !{i32 1, !"wchar_size", i32 4}
!1 = !{!"clang version 10.0.0-4ubuntu1 "}
